Certificate:
    Data:
        Version: 3 (0x2)
        Serial Number: 16 (0x10)
    Signature Algorithm: sha256WithRSAEncryption
        Issuer: C=ES, ST=Gipuzkoa, L=Zarautz, O=HashiCorp, OU=Sales, CN=joseca
        Validity
            Not Before: Mar 30 17:02:51 2023 GMT
            Not After : Mar 27 17:02:51 2033 GMT
        Subject: O=system:nodes, CN=system:node:*.vault.svc.cluster.local
        Subject Public Key Info:
            Public Key Algorithm: rsaEncryption
                RSA Public-Key: (2048 bit)
                Modulus:
                    00:f3:01:45:4c:a7:d0:e8:35:e5:5b:a0:7f:21:99:
                    6e:9d:00:b6:da:20:41:86:44:bf:54:9f:9a:ea:b1:
                    ce:00:fa:7f:24:55:eb:f3:d0:31:81:ba:57:cd:9c:
                    b8:5a:b4:ce:56:85:ed:0a:93:b4:e2:80:e4:68:57:
                    c2:b5:1c:33:a8:90:76:ae:8e:2a:ea:97:91:c0:ce:
                    1c:97:86:a1:ec:fe:d9:33:46:a3:73:5a:65:d3:3a:
                    a7:6d:89:7e:46:0f:a9:eb:f0:49:c7:b4:1c:e3:3a:
                    9b:10:56:79:33:0f:f6:f2:ef:f7:f4:b4:3f:78:26:
                    13:97:8c:10:ff:ad:9a:65:30:57:a8:81:3d:03:15:
                    34:08:a4:75:da:d8:d0:aa:23:52:42:0c:0f:29:97:
                    c8:2e:f7:49:3f:a3:4a:bf:ae:1e:65:51:2c:b5:eb:
                    17:25:7d:b3:71:02:07:2f:70:28:da:5f:cd:1f:db:
                    1e:2d:ba:db:0c:51:7a:55:9a:59:a0:e9:9d:e4:dd:
                    e6:3f:6f:d6:12:7e:3e:38:8f:41:2b:da:06:50:26:
                    86:8e:5e:12:08:f3:14:7c:8b:e2:d1:c6:9b:55:12:
                    9f:97:56:72:11:ed:55:cd:e0:45:16:2b:b7:f4:d6:
                    d2:19:6c:3a:f3:bb:80:d2:c8:21:d2:ee:d9:74:6f:
                    c3:05
                Exponent: 65537 (0x10001)
        X509v3 extensions:
            X509v3 Basic Constraints: 
                CA:FALSE
            Netscape Comment: 
                OpenSSL Generated Certificate
            X509v3 Subject Key Identifier: 
                3B:02:31:FD:6D:70:52:4F:6E:7A:A4:74:47:B8:98:17:9B:57:53:B7
            X509v3 Authority Key Identifier: 
                keyid:DA:50:91:4B:72:89:4B:83:C8:03:6B:DE:67:B9:08:31:B6:51:50:3B

            X509v3 Key Usage: 
                Digital Signature, Non Repudiation, Key Encipherment, Data Encipherment
            X509v3 Extended Key Usage: 
                TLS Web Server Authentication, TLS Web Client Authentication
            X509v3 Subject Alternative Name: 
                DNS:*.vault-internal, DNS:*.vault-internal.vault.svc.cluster.local, DNS:*.vault, DNS:*.vault.svc.cluster.local, IP Address:127.0.0.1
    Signature Algorithm: sha256WithRSAEncryption
         4e:96:9c:15:ca:aa:54:7b:10:0f:01:56:c4:f5:4e:18:61:cd:
         9c:ca:3a:a5:d2:95:5e:e4:21:1d:89:4b:22:05:34:a9:12:4e:
         73:24:bc:d0:9b:68:fa:c8:21:33:77:45:ec:c6:c0:77:e2:5a:
         80:80:01:11:d1:6d:2b:b7:49:63:fb:bc:86:c4:be:f9:f9:9a:
         e3:fd:db:c7:ec:e3:ea:d1:8c:ef:0a:e7:e1:b2:9d:9d:5b:47:
         4c:0c:9d:bb:58:c5:98:5a:c2:a7:50:6f:6f:62:78:fd:a9:25:
         6f:0a:bd:f2:c8:41:6a:80:08:05:c8:87:1f:33:ef:b6:f1:56:
         c2:c7:08:2e:94:4a:1a:aa:43:e3:e4:7a:c4:50:c4:ce:97:3e:
         ff:14:d1:e4:72:67:a1:e7:69:a6:e8:8a:da:1e:bf:ab:2a:43:
         a9:a3:12:7f:d2:b9:ea:52:b0:a6:2c:70:62:90:9e:1c:0c:d9:
         5e:ec:67:2f:27:be:7e:6a:60:fb:28:66:55:3e:d5:b0:61:14:
         ca:14:0c:20:91:d0:f9:0f:7c:4a:8c:5e:ac:d7:20:b6:c0:b7:
         4e:0a:a1:c0:be:41:56:7b:37:b5:c6:d7:fc:43:4d:a3:77:6f:
         2e:44:7f:57:0b:c6:39:f3:a3:db:42:ef:71:3c:fe:01:98:65:
         11:c5:7f:2f:39:42:33:ed:34:85:ce:6a:61:f1:7a:5d:fd:6d:
         97:92:ca:ab:32:e7:9e:4a:12:11:0c:c2:fe:57:fb:5e:09:63:
         11:0e:a8:28:5e:bc:fd:7f:4f:02:ec:22:ef:bf:47:7f:27:1f:
         59:4a:39:85:63:ea:4c:4b:c1:00:e5:37:51:4c:2d:fe:6a:11:
         03:72:42:12:eb:31:aa:da:b7:9f:14:4c:38:e1:9c:9c:2d:e4:
         21:62:de:50:d7:09:a3:2d:0c:ce:64:21:b2:66:c3:18:9e:99:
         6b:24:ad:30:34:e7:5e:6b:4f:50:51:b9:8f:d0:44:3d:76:1a:
         99:ee:d0:1b:69:1d:c0:a6:4c:e2:c2:26:7d:db:06:91:91:47:
         c6:23:89:4a:73:18:1a:ff:e3:0d:41:bb:6a:ed:7b:e5:73:ce:
         f9:57:33:9a:5f:16:c0:76:58:5c:58:27:ce:a1:a8:61:82:2f:
         96:87:d0:36:16:a1:30:09:a7:f9:2b:44:02:31:46:31:12:78:
         d2:d5:d3:52:c1:a5:3a:1d:f2:3f:7c:d7:b2:45:50:b8:70:87:
         08:45:af:18:65:85:af:a2:cc:4b:a6:c5:01:16:b0:70:9f:46:
         c3:fd:66:0b:84:32:54:0c:7a:c0:fe:90:65:d4:8b:c0:55:b7:
         9e:e0:a5:a5:5f:f1:2b:41
-----BEGIN CERTIFICATE-----
MIIFRTCCAy2gAwIBAgIBEDANBgkqhkiG9w0BAQsFADBnMQswCQYDVQQGEwJFUzER
MA8GA1UECBMIR2lwdXprb2ExEDAOBgNVBAcTB1phcmF1dHoxEjAQBgNVBAoTCUhh
c2hpQ29ycDEOMAwGA1UECxMFU2FsZXMxDzANBgNVBAMTBmpvc2VjYTAeFw0yMzAz
MzAxNzAyNTFaFw0zMzAzMjcxNzAyNTFaMEcxFTATBgNVBAoMDHN5c3RlbTpub2Rl
czEuMCwGA1UEAwwlc3lzdGVtOm5vZGU6Ki52YXVsdC5zdmMuY2x1c3Rlci5sb2Nh
bDCCASIwDQYJKoZIhvcNAQEBBQADggEPADCCAQoCggEBAPMBRUyn0Og15VugfyGZ
bp0AttogQYZEv1SfmuqxzgD6fyRV6/PQMYG6V82cuFq0zlaF7QqTtOKA5GhXwrUc
M6iQdq6OKuqXkcDOHJeGoez+2TNGo3NaZdM6p22JfkYPqevwSce0HOM6mxBWeTMP
9vLv9/S0P3gmE5eMEP+tmmUwV6iBPQMVNAikddrY0KojUkIMDymXyC73ST+jSr+u
HmVRLLXrFyV9s3ECBy9wKNpfzR/bHi262wxRelWaWaDpneTd5j9v1hJ+PjiPQSva
BlAmho5eEgjzFHyL4tHGm1USn5dWchHtVc3gRRYrt/TW0hlsOvO7gNLIIdLu2XRv
wwUCAwEAAaOCARowggEWMAkGA1UdEwQCMAAwLAYJYIZIAYb4QgENBB8WHU9wZW5T
U0wgR2VuZXJhdGVkIENlcnRpZmljYXRlMB0GA1UdDgQWBBQ7AjH9bXBST256pHRH
uJgXm1dTtzAfBgNVHSMEGDAWgBTaUJFLcolLg8gDa95nuQgxtlFQOzALBgNVHQ8E
BAMCBPAwHQYDVR0lBBYwFAYIKwYBBQUHAwEGCCsGAQUFBwMCMG8GA1UdEQRoMGaC
ECoudmF1bHQtaW50ZXJuYWyCKCoudmF1bHQtaW50ZXJuYWwudmF1bHQuc3ZjLmNs
dXN0ZXIubG9jYWyCByoudmF1bHSCGSoudmF1bHQuc3ZjLmNsdXN0ZXIubG9jYWyH
BH8AAAEwDQYJKoZIhvcNAQELBQADggIBAE6WnBXKqlR7EA8BVsT1ThhhzZzKOqXS
lV7kIR2JSyIFNKkSTnMkvNCbaPrIITN3RezGwHfiWoCAARHRbSu3SWP7vIbEvvn5
muP928fs4+rRjO8K5+GynZ1bR0wMnbtYxZhawqdQb29ieP2pJW8KvfLIQWqACAXI
hx8z77bxVsLHCC6UShqqQ+PkesRQxM6XPv8U0eRyZ6Hnaaboitoev6sqQ6mjEn/S
uepSsKYscGKQnhwM2V7sZy8nvn5qYPsoZlU+1bBhFMoUDCCR0PkPfEqMXqzXILbA
t04KocC+QVZ7N7XG1/xDTaN3by5Ef1cLxjnzo9tC73E8/gGYZRHFfy85QjPtNIXO
amHxel39bZeSyqsy555KEhEMwv5X+14JYxEOqChevP1/TwLsIu+/R38nH1lKOYVj
6kxLwQDlN1FMLf5qEQNyQhLrMarat58UTDjhnJwt5CFi3lDXCaMtDM5kIbJmwxie
mWskrTA0515rT1BRuY/QRD12Gpnu0BtpHcCmTOLCJn3bBpGRR8YjiUpzGBr/4w1B
u2rte+VzzvlXM5pfFsB2WFxYJ86hqGGCL5aH0DYWoTAJp/krRAIxRjESeNLV01LB
pTod8j9817JFULhwhwhFrxhlha+izEumxQEWsHCfRsP9ZguEMlQMesD+kGXUi8BV
t57gpaVf8StB
-----END CERTIFICATE-----
